; Function Attrs: nounwind uwtable
define void @Abc_NodeSuperChoiceCollect_rec(ptr noundef %0, ptr noundef %1, ptr noundef %2) local_unnamed_addr #0 {
  %4 = getelementptr inbounds nuw i8, ptr %0, i64 20
  %5 = load i32, ptr %4, align 4
  %6 = and i32 %5, 32
  %.not = icmp eq i32 %6, 0
  br i1 %.not, label %41, label %7

7:                                                ; preds = %3
  %8 = getelementptr inbounds nuw i8, ptr %1, i64 4
  %9 = load i32, ptr %8, align 4, !tbaa !24
  %10 = load i32, ptr %1, align 8, !tbaa !114
  %11 = icmp eq i32 %9, %10
  br i1 %11, label %12, label %.Vec_PtrGrow.exit11_crit_edge.i

.Vec_PtrGrow.exit11_crit_edge.i:                  ; preds = %7
  %.phi.trans.insert.i = getelementptr inbounds nuw i8, ptr %1, i64 8
  %.pre.i = load ptr, ptr %.phi.trans.insert.i, align 8, !tbaa !26
  br label %Vec_PtrPush.exit

12:                                               ; preds = %7
  %13 = icmp slt i32 %9, 16
  br i1 %13, label %14, label %22

14:                                               ; preds = %12
  %15 = getelementptr inbounds nuw i8, ptr %1, i64 8
  %16 = load ptr, ptr %15, align 8, !tbaa !26
  %.not9.i.i = icmp eq ptr %16, null
  br i1 %.not9.i.i, label %19, label %17

17:                                               ; preds = %14
  %18 = tail call dereferenceable_or_null(128) ptr @realloc(ptr noundef nonnull %16, i64 noundef 128) #17
  br label %Vec_PtrGrow.exit.i

19:                                               ; preds = %14
  %20 = tail call noalias dereferenceable_or_null(128) ptr @malloc(i64 noundef 128) #18
  br label %Vec_PtrGrow.exit.i

Vec_PtrGrow.exit.i:                               ; preds = %19, %17
  %21 = phi ptr [ %18, %17 ], [ %20, %19 ]
  store ptr %21, ptr %15, align 8, !tbaa !26
  store i32 16, ptr %1, align 8, !tbaa !114
  br label %Vec_PtrPush.exit

22:                                               ; preds = %12
  %23 = shl nuw nsw i32 %9, 1
  %24 = getelementptr inbounds nuw i8, ptr %1, i64 8
  %25 = load ptr, ptr %24, align 8, !tbaa !26
  %.not9.i10.i = icmp eq ptr %25, null
  %26 = zext nneg i32 %23 to i64
  %27 = shl nuw nsw i64 %26, 3
  br i1 %.not9.i10.i, label %30, label %28

28:                                               ; preds = %22
  %29 = tail call ptr @realloc(ptr noundef nonnull %25, i64 noundef %27) #17
  br label %32

30:                                               ; preds = %22
  %31 = tail call noalias ptr @malloc(i64 noundef %27) #18
  br label %32

32:                                               ; preds = %30, %28
  %33 = phi ptr [ %29, %28 ], [ %31, %30 ]
  store ptr %33, ptr %24, align 8, !tbaa !26
  store i32 %23, ptr %1, align 8, !tbaa !114
  br label %Vec_PtrPush.exit

Vec_PtrPush.exit:                                 ; preds = %.Vec_PtrGrow.exit11_crit_edge.i, %Vec_PtrGrow.exit.i, %32
  %34 = phi ptr [ %.pre.i, %.Vec_PtrGrow.exit11_crit_edge.i ], [ %33, %32 ], [ %21, %Vec_PtrGrow.exit.i ]
  %35 = load i32, ptr %8, align 4, !tbaa !24
  %36 = add nsw i32 %35, 1
  store i32 %36, ptr %8, align 4, !tbaa !24
  %37 = sext i32 %35 to i64
  %38 = getelementptr inbounds ptr, ptr %34, i64 %37
  store ptr %0, ptr %38, align 8, !tbaa !27
  %39 = load i32, ptr %4, align 4
  %40 = and i32 %39, -33
  store i32 %40, ptr %4, align 4
  br label %41

41:                                               ; preds = %Vec_PtrPush.exit, %3
  %42 = phi i32 [ %40, %Vec_PtrPush.exit ], [ %5, %3 ]
  %43 = and i32 %42, 64
  %.not14 = icmp eq i32 %43, 0
  br i1 %.not14, label %44, label %89

44:                                               ; preds = %41
  %45 = or disjoint i32 %42, 64
  store i32 %45, ptr %4, align 4
  %.val = load ptr, ptr %0, align 8, !tbaa !64
  %46 = getelementptr i8, ptr %0, i64 32
  %.val15 = load ptr, ptr %46, align 8, !tbaa !96
  %47 = getelementptr i8, ptr %.val, i64 32
  %.val.val = load ptr, ptr %47, align 8, !tbaa !48
  %.val15.val = load i32, ptr %.val15, align 4, !tbaa !40
  %48 = getelementptr i8, ptr %.val.val, i64 8
  %.val.val.val = load ptr, ptr %48, align 8, !tbaa !26
  %49 = sext i32 %.val15.val to i64
  %50 = getelementptr inbounds ptr, ptr %.val.val.val, i64 %49
  %51 = load ptr, ptr %50, align 8, !tbaa !27
  tail call void @Abc_NodeSuperChoiceCollect_rec(ptr noundef %51, ptr noundef %1, ptr noundef %2)
  %.val16 = load ptr, ptr %0, align 8, !tbaa !64
  %.val17 = load ptr, ptr %46, align 8, !tbaa !96
  %52 = getelementptr i8, ptr %.val16, i64 32
  %.val16.val = load ptr, ptr %52, align 8, !tbaa !48
  %53 = getelementptr i8, ptr %.val17, i64 4
  %.val17.val = load i32, ptr %53, align 4, !tbaa !40
  %54 = getelementptr i8, ptr %.val16.val, i64 8
  %.val16.val.val = load ptr, ptr %54, align 8, !tbaa !26
  %55 = sext i32 %.val17.val to i64
  %56 = getelementptr inbounds ptr, ptr %.val16.val.val, i64 %55
  %57 = load ptr, ptr %56, align 8, !tbaa !27
  tail call void @Abc_NodeSuperChoiceCollect_rec(ptr noundef %57, ptr noundef %1, ptr noundef %2)
  %58 = getelementptr inbounds nuw i8, ptr %2, i64 4
  %59 = load i32, ptr %58, align 4, !tbaa !24
  %60 = load i32, ptr %2, align 8, !tbaa !114
  %61 = icmp eq i32 %59, %60
  br i1 %61, label %62, label %.Vec_PtrGrow.exit11_crit_edge.i18

.Vec_PtrGrow.exit11_crit_edge.i18:                ; preds = %44
  %.phi.trans.insert.i19 = getelementptr inbounds nuw i8, ptr %2, i64 8
  %.pre.i20 = load ptr, ptr %.phi.trans.insert.i19, align 8, !tbaa !26
  br label %Vec_PtrPush.exit24

62:                                               ; preds = %44
  %63 = icmp slt i32 %59, 16
  br i1 %63, label %64, label %72

64:                                               ; preds = %62
  %65 = getelementptr inbounds nuw i8, ptr %2, i64 8
  %66 = load ptr, ptr %65, align 8, !tbaa !26
  %.not9.i.i22 = icmp eq ptr %66, null
  br i1 %.not9.i.i22, label %69, label %67

67:                                               ; preds = %64
  %68 = tail call dereferenceable_or_null(128) ptr @realloc(ptr noundef nonnull %66, i64 noundef 128) #17
  br label %Vec_PtrGrow.exit.i23

69:                                               ; preds = %64
  %70 = tail call noalias dereferenceable_or_null(128) ptr @malloc(i64 noundef 128) #18
  br label %Vec_PtrGrow.exit.i23

Vec_PtrGrow.exit.i23:                             ; preds = %69, %67
  %71 = phi ptr [ %68, %67 ], [ %70, %69 ]
  store ptr %71, ptr %65, align 8, !tbaa !26
  store i32 16, ptr %2, align 8, !tbaa !114
  br label %Vec_PtrPush.exit24

72:                                               ; preds = %62
  %73 = shl nuw nsw i32 %59, 1
  %74 = getelementptr inbounds nuw i8, ptr %2, i64 8
  %75 = load ptr, ptr %74, align 8, !tbaa !26
  %.not9.i10.i21 = icmp eq ptr %75, null
  %76 = zext nneg i32 %73 to i64
  %77 = shl nuw nsw i64 %76, 3
  br i1 %.not9.i10.i21, label %80, label %78

78:                                               ; preds = %72
  %79 = tail call ptr @realloc(ptr noundef nonnull %75, i64 noundef %77) #17
  br label %82

80:                                               ; preds = %72
  %81 = tail call noalias ptr @malloc(i64 noundef %77) #18
  br label %82

82:                                               ; preds = %80, %78
  %83 = phi ptr [ %79, %78 ], [ %81, %80 ]
  store ptr %83, ptr %74, align 8, !tbaa !26
  store i32 %73, ptr %2, align 8, !tbaa !114
  br label %Vec_PtrPush.exit24

Vec_PtrPush.exit24:                               ; preds = %.Vec_PtrGrow.exit11_crit_edge.i18, %Vec_PtrGrow.exit.i23, %82
  %84 = phi ptr [ %.pre.i20, %.Vec_PtrGrow.exit11_crit_edge.i18 ], [ %83, %82 ], [ %71, %Vec_PtrGrow.exit.i23 ]
  %85 = load i32, ptr %58, align 4, !tbaa !24
  %86 = add nsw i32 %85, 1
  store i32 %86, ptr %58, align 4, !tbaa !24
  %87 = sext i32 %85 to i64
  %88 = getelementptr inbounds ptr, ptr %84, i64 %87
  store ptr %0, ptr %88, align 8, !tbaa !27
  br label %89

89:                                               ; preds = %41, %Vec_PtrPush.exit24
  ret void
}